; Function Attrs: null_pointer_is_valid sspstrong uwtable
define void @free_key_string(ptr noundef %0) local_unnamed_addr #0 {
  %2 = load ptr, ptr %0, align 8
  %.not = icmp eq ptr %2, null
  br i1 %.not, label %5, label %3

3:                                                ; preds = %1
  %4 = tail call ptr @g_byte_array_free(ptr noundef nonnull %2, i32 noundef 1)
  br label %5

5:                                                ; preds = %3, %1
  %6 = getelementptr inbounds nuw i8, ptr %0, i64 8
  %7 = load ptr, ptr %6, align 8
  %.not6 = icmp eq ptr %7, null
  br i1 %.not6, label %10, label %8

8:                                                ; preds = %5
  %9 = tail call ptr @g_byte_array_free(ptr noundef nonnull %7, i32 noundef 1)
  br label %10

10:                                               ; preds = %8, %5
  tail call void @g_free(ptr noundef %0)
  ret void
}